; Function Attrs: mustprogress uwtable
define hidden void @_ZN7nlarith4util10deallocateEPNS0_11literal_setE(ptr noundef %0) local_unnamed_addr #3 align 2 {
  %2 = icmp eq ptr %0, null
  br i1 %2, label %_Z7deallocIN7nlarith4util11literal_setEEvPT_.exit, label %3

3:                                                ; preds = %1
  tail call void @_ZN7nlarith4util11literal_setD2Ev(ptr noundef nonnull align 8 dereferenceable(72) %0) #21
  tail call void @_ZN6memory10deallocateEPv(ptr noundef nonnull %0)
  br label %_Z7deallocIN7nlarith4util11literal_setEEvPT_.exit

_Z7deallocIN7nlarith4util11literal_setEEvPT_.exit: ; preds = %1, %3
  ret void
}